; Function Attrs: nounwind uwtable
define noalias noundef ptr @Aig_ManOrderPios(ptr noundef readonly captures(none) %0, ptr noundef %1) local_unnamed_addr #0 {
  tail call void @Aig_ManSetCioIds(ptr noundef %1) #11
  %3 = getelementptr i8, ptr %0, i64 136
  %.val25 = load i32, ptr %3, align 8, !tbaa !47
  %4 = getelementptr i8, ptr %0, i64 140
  %.val26 = load i32, ptr %4, align 4, !tbaa !47
  %5 = add nsw i32 %.val26, %.val25
  %6 = tail call noalias dereferenceable_or_null(16) ptr @malloc(i64 noundef 16) #13
  %7 = add i32 %5, -1
  %or.cond.i = icmp ult i32 %7, 7
  %spec.store.select.i = select i1 %or.cond.i, i32 8, i32 %5
  %8 = getelementptr inbounds nuw i8, ptr %6, i64 4
  store i32 0, ptr %8, align 4, !tbaa !21
  store i32 %spec.store.select.i, ptr %6, align 8, !tbaa !69
  %.not.i = icmp eq i32 %spec.store.select.i, 0
  br i1 %.not.i, label %Vec_PtrAlloc.exit, label %9

9:                                                ; preds = %2
  %10 = sext i32 %spec.store.select.i to i64
  %11 = shl nsw i64 %10, 3
  %12 = tail call noalias ptr @malloc(i64 noundef %11) #13
  br label %Vec_PtrAlloc.exit

Vec_PtrAlloc.exit:                                ; preds = %2, %9
  %13 = phi ptr [ %12, %9 ], [ null, %2 ]
  %14 = getelementptr inbounds nuw i8, ptr %6, i64 8
  store ptr %13, ptr %14, align 8, !tbaa !36
  %15 = getelementptr inbounds nuw i8, ptr %1, i64 32
  %16 = load ptr, ptr %15, align 8, !tbaa !3
  %17 = getelementptr i8, ptr %16, i64 4
  %.val37 = load i32, ptr %17, align 4, !tbaa !21
  %18 = icmp sgt i32 %.val37, 0
  br i1 %18, label %.lr.ph, label %.critedge

.lr.ph:                                           ; preds = %Vec_PtrAlloc.exit
  %19 = getelementptr i8, ptr %0, i64 24
  %20 = getelementptr i8, ptr %0, i64 16
  br label %21

21:                                               ; preds = %.lr.ph, %88
  %22 = phi i32 [ %spec.store.select.i, %.lr.ph ], [ %89, %88 ]
  %23 = phi i32 [ %spec.store.select.i, %.lr.ph ], [ %90, %88 ]
  %24 = phi i32 [ 0, %.lr.ph ], [ %91, %88 ]
  %indvars.iv = phi i64 [ 0, %.lr.ph ], [ %indvars.iv.next, %88 ]
  %25 = phi ptr [ %16, %.lr.ph ], [ %92, %88 ]
  %26 = getelementptr i8, ptr %25, i64 8
  %.val20 = load ptr, ptr %26, align 8, !tbaa !36
  %27 = getelementptr inbounds nuw ptr, ptr %.val20, i64 %indvars.iv
  %28 = load ptr, ptr %27, align 8, !tbaa !37
  %29 = icmp eq ptr %28, null
  br i1 %29, label %88, label %30

30:                                               ; preds = %21
  %31 = getelementptr i8, ptr %28, i64 24
  %.val22 = load i64, ptr %31, align 8
  %32 = and i64 %.val22, 7
  switch i64 %32, label %88 [
    i64 2, label %33
    i64 3, label %59
  ]

33:                                               ; preds = %30
  %.val23 = load i32, ptr %28, align 8, !tbaa !34
  %.val27 = load ptr, ptr %20, align 8, !tbaa !35
  %34 = getelementptr i8, ptr %.val27, i64 8
  %.val27.val = load ptr, ptr %34, align 8, !tbaa !36
  %35 = sext i32 %.val23 to i64
  %36 = getelementptr inbounds ptr, ptr %.val27.val, i64 %35
  %37 = load ptr, ptr %36, align 8, !tbaa !37
  %38 = icmp eq i32 %24, %22
  br i1 %38, label %39, label %.Vec_PtrGrow.exit11_crit_edge.i

.Vec_PtrGrow.exit11_crit_edge.i:                  ; preds = %33
  %.pre.i = load ptr, ptr %14, align 8, !tbaa !36
  br label %.sink.split

39:                                               ; preds = %33
  %40 = icmp slt i32 %22, 16
  br i1 %40, label %41, label %48

41:                                               ; preds = %39
  %42 = load ptr, ptr %14, align 8, !tbaa !36
  %.not9.i.i = icmp eq ptr %42, null
  br i1 %.not9.i.i, label %45, label %43

43:                                               ; preds = %41
  %44 = tail call dereferenceable_or_null(128) ptr @realloc(ptr noundef nonnull %42, i64 noundef 128) #15
  br label %Vec_PtrGrow.exit.i

45:                                               ; preds = %41
  %46 = tail call noalias dereferenceable_or_null(128) ptr @malloc(i64 noundef 128) #13
  br label %Vec_PtrGrow.exit.i

Vec_PtrGrow.exit.i:                               ; preds = %45, %43
  %47 = phi ptr [ %44, %43 ], [ %46, %45 ]
  store ptr %47, ptr %14, align 8, !tbaa !36
  store i32 16, ptr %6, align 8, !tbaa !69
  br label %.sink.split

48:                                               ; preds = %39
  %49 = shl nuw nsw i32 %22, 1
  %50 = load ptr, ptr %14, align 8, !tbaa !36
  %.not9.i10.i = icmp eq ptr %50, null
  %51 = zext nneg i32 %49 to i64
  %52 = shl nuw nsw i64 %51, 3
  br i1 %.not9.i10.i, label %55, label %53

53:                                               ; preds = %48
  %54 = tail call ptr @realloc(ptr noundef nonnull %50, i64 noundef %52) #15
  br label %57

55:                                               ; preds = %48
  %56 = tail call noalias ptr @malloc(i64 noundef %52) #13
  br label %57

57:                                               ; preds = %55, %53
  %58 = phi ptr [ %54, %53 ], [ %56, %55 ]
  store ptr %58, ptr %14, align 8, !tbaa !36
  store i32 %49, ptr %6, align 8, !tbaa !69
  br label %.sink.split

59:                                               ; preds = %30
  %.val24 = load i32, ptr %28, align 8, !tbaa !34
  %.val28 = load ptr, ptr %19, align 8, !tbaa !40
  %60 = getelementptr i8, ptr %.val28, i64 8
  %.val28.val = load ptr, ptr %60, align 8, !tbaa !36
  %61 = sext i32 %.val24 to i64
  %62 = getelementptr inbounds ptr, ptr %.val28.val, i64 %61
  %63 = load ptr, ptr %62, align 8, !tbaa !37
  %64 = icmp eq i32 %24, %23
  br i1 %64, label %65, label %.Vec_PtrGrow.exit11_crit_edge.i29

.Vec_PtrGrow.exit11_crit_edge.i29:                ; preds = %59
  %.pre.i31 = load ptr, ptr %14, align 8, !tbaa !36
  br label %.sink.split

65:                                               ; preds = %59
  %66 = icmp slt i32 %23, 16
  br i1 %66, label %67, label %74

67:                                               ; preds = %65
  %68 = load ptr, ptr %14, align 8, !tbaa !36
  %.not9.i.i33 = icmp eq ptr %68, null
  br i1 %.not9.i.i33, label %71, label %69

69:                                               ; preds = %67
  %70 = tail call dereferenceable_or_null(128) ptr @realloc(ptr noundef nonnull %68, i64 noundef 128) #15
  br label %Vec_PtrGrow.exit.i34

71:                                               ; preds = %67
  %72 = tail call noalias dereferenceable_or_null(128) ptr @malloc(i64 noundef 128) #13
  br label %Vec_PtrGrow.exit.i34

Vec_PtrGrow.exit.i34:                             ; preds = %71, %69
  %73 = phi ptr [ %70, %69 ], [ %72, %71 ]
  store ptr %73, ptr %14, align 8, !tbaa !36
  store i32 16, ptr %6, align 8, !tbaa !69
  br label %.sink.split

74:                                               ; preds = %65
  %75 = shl nuw nsw i32 %23, 1
  %76 = load ptr, ptr %14, align 8, !tbaa !36
  %.not9.i10.i32 = icmp eq ptr %76, null
  %77 = zext nneg i32 %75 to i64
  %78 = shl nuw nsw i64 %77, 3
  br i1 %.not9.i10.i32, label %81, label %79

79:                                               ; preds = %74
  %80 = tail call ptr @realloc(ptr noundef nonnull %76, i64 noundef %78) #15
  br label %83

81:                                               ; preds = %74
  %82 = tail call noalias ptr @malloc(i64 noundef %78) #13
  br label %83

83:                                               ; preds = %81, %79
  %84 = phi ptr [ %80, %79 ], [ %82, %81 ]
  store ptr %84, ptr %14, align 8, !tbaa !36
  store i32 %75, ptr %6, align 8, !tbaa !69
  br label %.sink.split

.sink.split:                                      ; preds = %83, %Vec_PtrGrow.exit.i34, %.Vec_PtrGrow.exit11_crit_edge.i29, %57, %Vec_PtrGrow.exit.i, %.Vec_PtrGrow.exit11_crit_edge.i
  %.sink43 = phi ptr [ %.pre.i, %.Vec_PtrGrow.exit11_crit_edge.i ], [ %58, %57 ], [ %47, %Vec_PtrGrow.exit.i ], [ %.pre.i31, %.Vec_PtrGrow.exit11_crit_edge.i29 ], [ %84, %83 ], [ %73, %Vec_PtrGrow.exit.i34 ]
  %.sink = phi ptr [ %37, %.Vec_PtrGrow.exit11_crit_edge.i ], [ %37, %57 ], [ %37, %Vec_PtrGrow.exit.i ], [ %63, %.Vec_PtrGrow.exit11_crit_edge.i29 ], [ %63, %83 ], [ %63, %Vec_PtrGrow.exit.i34 ]
  %.ph = phi i32 [ %22, %.Vec_PtrGrow.exit11_crit_edge.i ], [ %49, %57 ], [ 16, %Vec_PtrGrow.exit.i ], [ %22, %.Vec_PtrGrow.exit11_crit_edge.i29 ], [ %75, %83 ], [ 16, %Vec_PtrGrow.exit.i34 ]
  %.ph40 = phi i32 [ %22, %.Vec_PtrGrow.exit11_crit_edge.i ], [ %49, %57 ], [ 16, %Vec_PtrGrow.exit.i ], [ %23, %.Vec_PtrGrow.exit11_crit_edge.i29 ], [ %75, %83 ], [ 16, %Vec_PtrGrow.exit.i34 ]
  %85 = add nsw i32 %24, 1
  store i32 %85, ptr %8, align 4, !tbaa !21
  %86 = sext i32 %24 to i64
  %87 = getelementptr inbounds ptr, ptr %.sink43, i64 %86
  store ptr %.sink, ptr %87, align 8, !tbaa !37
  br label %88

88:                                               ; preds = %.sink.split, %30, %21
  %89 = phi i32 [ %22, %30 ], [ %22, %21 ], [ %.ph, %.sink.split ]
  %90 = phi i32 [ %23, %30 ], [ %23, %21 ], [ %.ph40, %.sink.split ]
  %91 = phi i32 [ %24, %30 ], [ %24, %21 ], [ %85, %.sink.split ]
  %indvars.iv.next = add nuw nsw i64 %indvars.iv, 1
  %92 = load ptr, ptr %15, align 8, !tbaa !3
  %93 = getelementptr i8, ptr %92, i64 4
  %.val = load i32, ptr %93, align 4, !tbaa !21
  %94 = sext i32 %.val to i64
  %95 = icmp slt i64 %indvars.iv.next, %94
  br i1 %95, label %21, label %.critedge, !llvm.loop !70

.critedge:                                        ; preds = %88, %Vec_PtrAlloc.exit
  tail call void @Aig_ManCleanCioIds(ptr noundef nonnull %1) #11
  ret ptr %6
}